; Function Attrs: mustprogress uwtable
define hidden noundef zeroext i1 @_ZN4cvc58internal16ProofRuleChecker7getBoolENS0_12NodeTemplateILb0EEERb(ptr noundef nonnull %0, ptr noundef nonnull writeonly align 1 captures(none) dereferenceable(1) %1) local_unnamed_addr #3 align 2 personality ptr @__gxx_personality_v0 {
  %3 = alloca %"class.cvc5::internal::TypeNode", align 8
  %4 = tail call noundef zeroext i1 @_ZNK4cvc58internal12NodeTemplateILb0EE7isConstEv(ptr noundef nonnull align 8 dereferenceable(8) %0)
  br i1 %4, label %5, label %.critedge.thread

5:                                                ; preds = %2
  call void @llvm.lifetime.start.p0(i64 8, ptr nonnull %3) #18
  call void @_ZNK4cvc58internal12NodeTemplateILb0EE7getTypeEb(ptr dead_on_unwind nonnull writable sret(%"class.cvc5::internal::TypeNode") align 8 %3, ptr noundef nonnull align 8 dereferenceable(8) %0, i1 noundef zeroext false)
  %6 = load ptr, ptr %3, align 8, !tbaa !17
  %7 = getelementptr inbounds nuw i8, ptr %6, i64 8
  %8 = load i64, ptr %7, align 8
  %9 = and i64 %8, 1023
  %10 = icmp eq i64 %9, 13
  br i1 %10, label %11, label %15

11:                                               ; preds = %5
  %12 = invoke noundef nonnull align 4 dereferenceable(4) ptr @_ZNK4cvc58internal4expr9NodeValue8getConstINS0_12TypeConstantEEERKT_v(ptr noundef nonnull align 8 dereferenceable(24) %6)
          to label %.noexc unwind label %33

.noexc:                                           ; preds = %11
  %13 = load i32, ptr %12, align 4, !tbaa !19
  %14 = icmp eq i32 %13, 2
  %.pre = load ptr, ptr %3, align 8, !tbaa !17
  br label %15

15:                                               ; preds = %.noexc, %5
  %16 = phi ptr [ %.pre, %.noexc ], [ %6, %5 ]
  %.ph = phi i1 [ %14, %.noexc ], [ false, %5 ]
  %17 = load i64, ptr %16, align 8
  %18 = and i64 %17, 1152920405095219200
  %.not.i.i = icmp eq i64 %18, 1152920405095219200
  br i1 %.not.i.i, label %.critedge, label %19, !prof !21

19:                                               ; preds = %15
  %20 = add i64 %17, 1152920405095219200
  %21 = and i64 %20, 1152920405095219200
  %22 = and i64 %17, -1152920405095219201
  %23 = or disjoint i64 %21, %22
  store i64 %23, ptr %16, align 8
  %24 = icmp eq i64 %21, 0
  br i1 %24, label %25, label %.critedge, !prof !21

25:                                               ; preds = %19
  invoke void @_ZN4cvc58internal4expr9NodeValue15markForDeletionEv(ptr noundef nonnull align 8 dereferenceable(24) %16)
          to label %.critedge unwind label %26

26:                                               ; preds = %25
  %27 = landingpad { ptr, i32 }
          catch ptr null
  %28 = extractvalue { ptr, i32 } %27, 0
  call void @__clang_call_terminate(ptr %28) #19
  unreachable

.critedge:                                        ; preds = %25, %19, %15
  call void @llvm.lifetime.end.p0(i64 8, ptr nonnull %3) #18
  br i1 %.ph, label %29, label %.critedge.thread

29:                                               ; preds = %.critedge
  %30 = load ptr, ptr %0, align 8, !tbaa !6
  %31 = call noundef nonnull align 1 dereferenceable(1) ptr @_ZNK4cvc58internal4expr9NodeValue8getConstIbEERKT_v(ptr noundef nonnull align 8 dereferenceable(24) %30)
  %32 = load i8, ptr %31, align 1, !tbaa !22, !range !24, !noundef !25
  store i8 %32, ptr %1, align 1, !tbaa !22
  br label %.critedge.thread

33:                                               ; preds = %11
  %34 = landingpad { ptr, i32 }
          cleanup
  call void @_ZN4cvc58internal8TypeNodeD2Ev(ptr noundef nonnull align 8 dereferenceable(8) %3) #18
  call void @llvm.lifetime.end.p0(i64 8, ptr nonnull %3) #18
  resume { ptr, i32 } %34

.critedge.thread:                                 ; preds = %2, %.critedge, %29
  %35 = phi i1 [ false, %.critedge ], [ true, %29 ], [ false, %2 ]
  ret i1 %35
}